target datalayout = "e-m:e-p270:32:32-p271:32:32-p272:64:64-i64:64-i128:128-f80:128-n8:16:32:64-S128"
target triple = "x86_64-pc-linux-gnu"

%struct.AVFormatContext = type { ptr, ptr, ptr, ptr, ptr, i32, i32, ptr, i32, ptr, i32, ptr, ptr, i64, i64, i64, i32, i32, i32, i64, i64, ptr, i32, i32, ptr, i32, i32, i32, i32, ptr, i64, i32, i32, %struct.AVIOInterruptCB, i32, i32, i32, i32, i64, i32, i32, i32, i32, i32, i32, i32, i32, i32, i32, i32, i32, i64, i32, i32, i32, i32, i32, ptr, ptr, ptr, ptr, i32, ptr, ptr, ptr, ptr, i32, ptr, ptr, i64, ptr, ptr, ptr, i64 }
%struct.AVIOInterruptCB = type { ptr, ptr }
%struct.AVStream = type { ptr, i32, i32, ptr, ptr, %struct.AVRational, i64, i64, i64, i32, i32, %struct.AVRational, ptr, %struct.AVRational, %struct.AVPacket, i32, %struct.AVRational, i32 }
%struct.AVPacket = type { ptr, i64, i64, ptr, i32, i32, i32, ptr, i32, i64, i64, ptr, ptr, %struct.AVRational }
%struct.AVRational = type { i32, i32 }
%struct.AVCodecParameters = type { i32, i32, i32, ptr, i32, ptr, i32, i32, i64, i32, i32, i32, i32, i32, i32, %struct.AVRational, %struct.AVRational, i32, i32, i32, i32, i32, i32, i32, %struct.AVChannelLayout, i32, i32, i32, i32, i32, i32 }
%struct.AVChannelLayout = type { i32, i32, %union.anon, ptr }
%union.anon = type { i64 }

; Function Attrs: alwaysinline nounwind uwtable
define internal i64 @avio_tell(ptr noundef %0) #6 {
  %2 = alloca ptr, align 8
  store ptr %0, ptr %2, align 8, !tbaa !31
  %3 = load ptr, ptr %2, align 8, !tbaa !31
  %4 = call i64 @avio_seek(ptr noundef %3, i64 noundef 0, i32 noundef 1)
  ret i64 %4
}

; Function Attrs: nounwind uwtable
define internal i32 @fsb_read_packet(ptr noundef %0, ptr noundef %1) #0 {
  %3 = alloca i32, align 4
  %4 = alloca ptr, align 8
  %5 = alloca ptr, align 8
  %6 = alloca ptr, align 8
  %7 = alloca i64, align 8
  %8 = alloca i32, align 4
  %9 = alloca i32, align 4
  %10 = alloca i32, align 4
  %11 = alloca i32, align 4
  store ptr %0, ptr %4, align 8, !tbaa !14
  store ptr %1, ptr %5, align 8, !tbaa !58
  call void @llvm.lifetime.start.p0(i64 8, ptr %6) #8
  %12 = load ptr, ptr %4, align 8, !tbaa !14
  %13 = getelementptr inbounds nuw %struct.AVFormatContext, ptr %12, i32 0, i32 7
  %14 = load ptr, ptr %13, align 8, !tbaa !60
  %15 = getelementptr inbounds ptr, ptr %14, i64 0
  %16 = load ptr, ptr %15, align 8, !tbaa !32
  %17 = getelementptr inbounds nuw %struct.AVStream, ptr %16, i32 0, i32 3
  %18 = load ptr, ptr %17, align 8, !tbaa !35
  store ptr %18, ptr %6, align 8, !tbaa !42
  call void @llvm.lifetime.start.p0(i64 8, ptr %7) #8
  call void @llvm.lifetime.start.p0(i64 4, ptr %8) #8
  %19 = load ptr, ptr %4, align 8, !tbaa !14
  %20 = getelementptr inbounds nuw %struct.AVFormatContext, ptr %19, i32 0, i32 4
  %21 = load ptr, ptr %20, align 8, !tbaa !16
  %22 = call i32 @avio_feof(ptr noundef %21)
  %23 = icmp ne i32 %22, 0
  br i1 %23, label %24, label %25

24:                                               ; preds = %2
  store i32 -541478725, ptr %3, align 4
  store i32 1, ptr %9, align 4
  br label %144

25:                                               ; preds = %2
  %26 = load ptr, ptr %4, align 8, !tbaa !14
  %27 = getelementptr inbounds nuw %struct.AVFormatContext, ptr %26, i32 0, i32 4
  %28 = load ptr, ptr %27, align 8, !tbaa !16
  %29 = call i64 @avio_tell(ptr noundef %28)
  store i64 %29, ptr %7, align 8, !tbaa !47
  %30 = load ptr, ptr %6, align 8, !tbaa !42
  %31 = getelementptr inbounds nuw %struct.AVCodecParameters, ptr %30, i32 0, i32 1
  %32 = load i32, ptr %31, align 4, !tbaa !51
  %33 = icmp eq i32 %32, 69650
  br i1 %33, label %34, label %106

34:                                               ; preds = %25
  %35 = load ptr, ptr %6, align 8, !tbaa !42
  %36 = getelementptr inbounds nuw %struct.AVCodecParameters, ptr %35, i32 0, i32 24
  %37 = getelementptr inbounds nuw %struct.AVChannelLayout, ptr %36, i32 0, i32 1
  %38 = load i32, ptr %37, align 4, !tbaa !50
  %39 = icmp sgt i32 %38, 1
  br i1 %39, label %40, label %106

40:                                               ; preds = %34
  call void @llvm.lifetime.start.p0(i64 4, ptr %10) #8
  call void @llvm.lifetime.start.p0(i64 4, ptr %11) #8
  %41 = load ptr, ptr %5, align 8, !tbaa !58
  %42 = load ptr, ptr %6, align 8, !tbaa !42
  %43 = getelementptr inbounds nuw %struct.AVCodecParameters, ptr %42, i32 0, i32 26
  %44 = load i32, ptr %43, align 4, !tbaa !52
  %45 = call i32 @av_new_packet(ptr noundef %41, i32 noundef %44)
  store i32 %45, ptr %8, align 4, !tbaa !34
  %46 = load i32, ptr %8, align 4, !tbaa !34
  %47 = icmp slt i32 %46, 0
  br i1 %47, label %48, label %50

48:                                               ; preds = %40
  %49 = load i32, ptr %8, align 4, !tbaa !34
  store i32 %49, ptr %3, align 4
  store i32 1, ptr %9, align 4
  br label %103

50:                                               ; preds = %40
  store i32 0, ptr %10, align 4, !tbaa !34
  br label %51

51:                                               ; preds = %99, %50
  %52 = load i32, ptr %10, align 4, !tbaa !34
  %53 = icmp slt i32 %52, 4
  br i1 %53, label %54, label %102

54:                                               ; preds = %51
  store i32 0, ptr %11, align 4, !tbaa !34
  br label %55

55:                                               ; preds = %95, %54
  %56 = load i32, ptr %11, align 4, !tbaa !34
  %57 = load ptr, ptr %6, align 8, !tbaa !42
  %58 = getelementptr inbounds nuw %struct.AVCodecParameters, ptr %57, i32 0, i32 24
  %59 = getelementptr inbounds nuw %struct.AVChannelLayout, ptr %58, i32 0, i32 1
  %60 = load i32, ptr %59, align 4, !tbaa !50
  %61 = icmp slt i32 %56, %60
  br i1 %61, label %62, label %98

62:                                               ; preds = %55
  %63 = load ptr, ptr %4, align 8, !tbaa !14
  %64 = getelementptr inbounds nuw %struct.AVFormatContext, ptr %63, i32 0, i32 4
  %65 = load ptr, ptr %64, align 8, !tbaa !16
  %66 = call i32 @avio_r8(ptr noundef %65)
  %67 = trunc i32 %66 to i8
  %68 = load ptr, ptr %5, align 8, !tbaa !58
  %69 = getelementptr inbounds nuw %struct.AVPacket, ptr %68, i32 0, i32 3
  %70 = load ptr, ptr %69, align 8, !tbaa !61
  %71 = load i32, ptr %11, align 4, !tbaa !34
  %72 = mul nsw i32 %71, 8
  %73 = load i32, ptr %10, align 4, !tbaa !34
  %74 = mul nsw i32 %73, 2
  %75 = add nsw i32 %72, %74
  %76 = add nsw i32 %75, 0
  %77 = sext i32 %76 to i64
  %78 = getelementptr inbounds i8, ptr %70, i64 %77
  store i8 %67, ptr %78, align 1, !tbaa !13
  %79 = load ptr, ptr %4, align 8, !tbaa !14
  %80 = getelementptr inbounds nuw %struct.AVFormatContext, ptr %79, i32 0, i32 4
  %81 = load ptr, ptr %80, align 8, !tbaa !16
  %82 = call i32 @avio_r8(ptr noundef %81)
  %83 = trunc i32 %82 to i8
  %84 = load ptr, ptr %5, align 8, !tbaa !58
  %85 = getelementptr inbounds nuw %struct.AVPacket, ptr %84, i32 0, i32 3
  %86 = load ptr, ptr %85, align 8, !tbaa !61
  %87 = load i32, ptr %11, align 4, !tbaa !34
  %88 = mul nsw i32 %87, 8
  %89 = load i32, ptr %10, align 4, !tbaa !34
  %90 = mul nsw i32 %89, 2
  %91 = add nsw i32 %88, %90
  %92 = add nsw i32 %91, 1
  %93 = sext i32 %92 to i64
  %94 = getelementptr inbounds i8, ptr %86, i64 %93
  store i8 %83, ptr %94, align 1, !tbaa !13
  br label %95

95:                                               ; preds = %62
  %96 = load i32, ptr %11, align 4, !tbaa !34
  %97 = add nsw i32 %96, 1
  store i32 %97, ptr %11, align 4, !tbaa !34
  br label %55, !llvm.loop !62

98:                                               ; preds = %55
  br label %99

99:                                               ; preds = %98
  %100 = load i32, ptr %10, align 4, !tbaa !34
  %101 = add nsw i32 %100, 1
  store i32 %101, ptr %10, align 4, !tbaa !34
  br label %51, !llvm.loop !63

102:                                              ; preds = %51
  store i32 0, ptr %8, align 4, !tbaa !34
  store i32 0, ptr %9, align 4
  br label %103

103:                                              ; preds = %102, %48
  call void @llvm.lifetime.end.p0(i64 4, ptr %11) #8
  call void @llvm.lifetime.end.p0(i64 4, ptr %10) #8
  %104 = load i32, ptr %9, align 4
  switch i32 %104, label %144 [
    i32 0, label %105
  ]

105:                                              ; preds = %103
  br label %115

106:                                              ; preds = %34, %25
  %107 = load ptr, ptr %4, align 8, !tbaa !14
  %108 = getelementptr inbounds nuw %struct.AVFormatContext, ptr %107, i32 0, i32 4
  %109 = load ptr, ptr %108, align 8, !tbaa !16
  %110 = load ptr, ptr %5, align 8, !tbaa !58
  %111 = load ptr, ptr %6, align 8, !tbaa !42
  %112 = getelementptr inbounds nuw %struct.AVCodecParameters, ptr %111, i32 0, i32 26
  %113 = load i32, ptr %112, align 4, !tbaa !52
  %114 = call i32 @av_get_packet(ptr noundef %109, ptr noundef %110, i32 noundef %113)
  store i32 %114, ptr %8, align 4, !tbaa !34
  br label %115

115:                                              ; preds = %106, %105
  %116 = load ptr, ptr %6, align 8, !tbaa !42
  %117 = getelementptr inbounds nuw %struct.AVCodecParameters, ptr %116, i32 0, i32 1
  %118 = load i32, ptr %117, align 4, !tbaa !51
  %119 = icmp eq i32 %118, 86096
  br i1 %119, label %120, label %137

120:                                              ; preds = %115
  %121 = load ptr, ptr %5, align 8, !tbaa !58
  %122 = getelementptr inbounds nuw %struct.AVPacket, ptr %121, i32 0, i32 4
  %123 = load i32, ptr %122, align 8, !tbaa !64
  %124 = icmp sge i32 %123, 1
  br i1 %124, label %125, label %137

125:                                              ; preds = %120
  %126 = load ptr, ptr %5, align 8, !tbaa !58
  %127 = getelementptr inbounds nuw %struct.AVPacket, ptr %126, i32 0, i32 3
  %128 = load ptr, ptr %127, align 8, !tbaa !61
  %129 = getelementptr inbounds i8, ptr %128, i64 0
  %130 = load i8, ptr %129, align 1, !tbaa !13
  %131 = zext i8 %130 to i32
  %132 = ashr i32 %131, 2
  %133 = mul nsw i32 %132, 512
  %134 = sext i32 %133 to i64
  %135 = load ptr, ptr %5, align 8, !tbaa !58
  %136 = getelementptr inbounds nuw %struct.AVPacket, ptr %135, i32 0, i32 9
  store i64 %134, ptr %136, align 8, !tbaa !65
  br label %137

137:                                              ; preds = %125, %120, %115
  %138 = load i64, ptr %7, align 8, !tbaa !47
  %139 = load ptr, ptr %5, align 8, !tbaa !58
  %140 = getelementptr inbounds nuw %struct.AVPacket, ptr %139, i32 0, i32 10
  store i64 %138, ptr %140, align 8, !tbaa !66
  %141 = load ptr, ptr %5, align 8, !tbaa !58
  %142 = getelementptr inbounds nuw %struct.AVPacket, ptr %141, i32 0, i32 5
  store i32 0, ptr %142, align 4, !tbaa !67
  %143 = load i32, ptr %8, align 4, !tbaa !34
  store i32 %143, ptr %3, align 4
  store i32 1, ptr %9, align 4
  br label %144

144:                                              ; preds = %137, %103, %24
  call void @llvm.lifetime.end.p0(i64 4, ptr %8) #8
  call void @llvm.lifetime.end.p0(i64 8, ptr %7) #8
  call void @llvm.lifetime.end.p0(i64 8, ptr %6) #8
  %145 = load i32, ptr %3, align 4
  ret i32 %145
}