; Function Attrs: nounwind uwtable
define internal i32 @fsb_read_packet(ptr noundef readonly captures(none) %0, ptr noundef %1) #1 {
  %3 = getelementptr inbounds nuw i8, ptr %0, i64 48
  %4 = load ptr, ptr %3, align 8, !tbaa !48
  %5 = load ptr, ptr %4, align 8, !tbaa !49
  %6 = getelementptr inbounds nuw i8, ptr %5, i64 16
  %7 = load ptr, ptr %6, align 8, !tbaa !27
  %8 = getelementptr inbounds nuw i8, ptr %0, i64 32
  %9 = load ptr, ptr %8, align 8, !tbaa !12
  %10 = tail call i32 @avio_feof(ptr noundef %9) #5
  %.not = icmp eq i32 %10, 0
  br i1 %.not, label %11, label %.thread

11:                                               ; preds = %2
  %12 = load ptr, ptr %8, align 8, !tbaa !12
  %13 = tail call i64 @avio_seek(ptr noundef %12, i64 noundef 0, i32 noundef 1) #5
  %14 = getelementptr inbounds nuw i8, ptr %7, i64 4
  %15 = load i32, ptr %14, align 4, !tbaa !41
  %16 = icmp eq i32 %15, 69650
  br i1 %16, label %17, label %50

17:                                               ; preds = %11
  %18 = getelementptr inbounds nuw i8, ptr %7, i64 132
  %19 = load i32, ptr %18, align 4, !tbaa !40
  %20 = icmp sgt i32 %19, 1
  br i1 %20, label %21, label %50

21:                                               ; preds = %17
  %22 = getelementptr inbounds nuw i8, ptr %7, i64 156
  %23 = load i32, ptr %22, align 4, !tbaa !43
  %24 = tail call i32 @av_new_packet(ptr noundef %1, i32 noundef %23) #5
  %25 = icmp sgt i32 %24, -1
  br i1 %25, label %.preheader41, label %.thread

.preheader41:                                     ; preds = %21
  %26 = getelementptr inbounds nuw i8, ptr %1, i64 24
  %27 = load i32, ptr %18, align 4, !tbaa !40
  %28 = icmp sgt i32 %27, 0
  br i1 %28, label %.preheader, label %.loopexit

.preheader:                                       ; preds = %.preheader41, %._crit_edge
  %29 = phi i32 [ %49, %._crit_edge ], [ %27, %.preheader41 ]
  %indvars.iv46 = phi i64 [ %indvars.iv.next47, %._crit_edge ], [ 0, %.preheader41 ]
  %30 = icmp sgt i32 %29, 0
  br i1 %30, label %.lr.ph, label %._crit_edge

.lr.ph:                                           ; preds = %.preheader
  %31 = shl nuw nsw i64 %indvars.iv46, 1
  br label %32

32:                                               ; preds = %.lr.ph, %32
  %indvars.iv = phi i64 [ 0, %.lr.ph ], [ %indvars.iv.next, %32 ]
  %33 = load ptr, ptr %8, align 8, !tbaa !12
  %34 = tail call i32 @avio_r8(ptr noundef %33) #5
  %35 = trunc i32 %34 to i8
  %36 = load ptr, ptr %26, align 8, !tbaa !51
  %37 = shl nsw i64 %indvars.iv, 3
  %38 = add nuw nsw i64 %37, %31
  %39 = getelementptr inbounds nuw i8, ptr %36, i64 %38
  store i8 %35, ptr %39, align 1, !tbaa !11
  %40 = load ptr, ptr %8, align 8, !tbaa !12
  %41 = tail call i32 @avio_r8(ptr noundef %40) #5
  %42 = trunc i32 %41 to i8
  %43 = load ptr, ptr %26, align 8, !tbaa !51
  %44 = getelementptr inbounds nuw i8, ptr %43, i64 %38
  %45 = getelementptr inbounds nuw i8, ptr %44, i64 1
  store i8 %42, ptr %45, align 1, !tbaa !11
  %indvars.iv.next = add nuw nsw i64 %indvars.iv, 1
  %46 = load i32, ptr %18, align 4, !tbaa !40
  %47 = sext i32 %46 to i64
  %48 = icmp slt i64 %indvars.iv.next, %47
  br i1 %48, label %32, label %._crit_edge, !llvm.loop !52

._crit_edge:                                      ; preds = %32, %.preheader
  %49 = phi i32 [ %29, %.preheader ], [ %46, %32 ]
  %indvars.iv.next47 = add nuw nsw i64 %indvars.iv46, 1
  %exitcond.not = icmp eq i64 %indvars.iv.next47, 4
  br i1 %exitcond.not, label %.loopexit, label %.preheader, !llvm.loop !53

50:                                               ; preds = %17, %11
  %51 = load ptr, ptr %8, align 8, !tbaa !12
  %52 = getelementptr inbounds nuw i8, ptr %7, i64 156
  %53 = load i32, ptr %52, align 4, !tbaa !43
  %54 = tail call i32 @av_get_packet(ptr noundef %51, ptr noundef %1, i32 noundef %53) #5
  br label %.loopexit

.loopexit:                                        ; preds = %._crit_edge, %.preheader41, %50
  %.1 = phi i32 [ %54, %50 ], [ 0, %.preheader41 ], [ 0, %._crit_edge ]
  %55 = load i32, ptr %14, align 4, !tbaa !41
  %56 = icmp eq i32 %55, 86096
  br i1 %56, label %57, label %69

57:                                               ; preds = %.loopexit
  %58 = getelementptr inbounds nuw i8, ptr %1, i64 32
  %59 = load i32, ptr %58, align 8, !tbaa !55
  %60 = icmp sgt i32 %59, 0
  br i1 %60, label %61, label %69

61:                                               ; preds = %57
  %62 = getelementptr inbounds nuw i8, ptr %1, i64 24
  %63 = load ptr, ptr %62, align 8, !tbaa !51
  %64 = load i8, ptr %63, align 1, !tbaa !11
  %65 = lshr i8 %64, 2
  %66 = zext nneg i8 %65 to i64
  %67 = shl nuw nsw i64 %66, 9
  %68 = getelementptr inbounds nuw i8, ptr %1, i64 64
  store i64 %67, ptr %68, align 8, !tbaa !56
  br label %69

69:                                               ; preds = %61, %57, %.loopexit
  %70 = getelementptr inbounds nuw i8, ptr %1, i64 72
  store i64 %13, ptr %70, align 8, !tbaa !57
  %71 = getelementptr inbounds nuw i8, ptr %1, i64 36
  store i32 0, ptr %71, align 4, !tbaa !58
  br label %.thread

.thread:                                          ; preds = %21, %2, %69
  %.037 = phi i32 [ %.1, %69 ], [ -541478725, %2 ], [ %24, %21 ]
  ret i32 %.037
}